target datalayout = "e-m:e-p270:32:32-p271:32:32-p272:64:64-i64:64-i128:128-f80:128-n8:16:32:64-S128"
target triple = "x86_64-pc-linux-gnu"

%struct._typeobject = type { %struct.PyVarObject, ptr, i64, i64, ptr, i64, ptr, ptr, ptr, ptr, ptr, ptr, ptr, ptr, ptr, ptr, ptr, ptr, ptr, i64, ptr, ptr, ptr, ptr, i64, ptr, ptr, ptr, ptr, ptr, ptr, ptr, ptr, ptr, i64, ptr, ptr, ptr, ptr, ptr, ptr, ptr, ptr, ptr, ptr, ptr, i32, ptr, ptr, i8, i16 }
%struct.PyVarObject = type { %struct._object, i64 }
%struct._object = type { %union.anon, ptr }
%union.anon = type { i64 }
%struct.PyCodeObject = type { %struct.PyVarObject, ptr, ptr, ptr, i32, i32, i32, i32, i32, i32, i32, i32, i32, i32, i32, i32, ptr, ptr, ptr, ptr, ptr, ptr, ptr, ptr, ptr, i64, ptr, i64, i32, ptr, [1 x i8] }
%struct._PyCoMonitoringData = type { %struct._Py_LocalMonitors, %struct._Py_LocalMonitors, ptr, [8 x i64], ptr, ptr, ptr, ptr }
%struct._Py_LocalMonitors = type { [11 x i8] }

@PyExc_ValueError = external global ptr, align 8
@.str.20 = private unnamed_addr constant [17 x i8] c"get_local_events\00", align 1
@.str.27 = private unnamed_addr constant [42 x i8] c"invalid tool %d (must be between 0 and 5)\00", align 1
@PyCode_Type = external global %struct._typeobject, align 8
@PyExc_TypeError = external global ptr, align 8
@.str.34 = private unnamed_addr constant [27 x i8] c"code must be a code object\00", align 1

; Function Attrs: inlinehint nounwind uwtable
define internal ptr @_Py_TYPE(ptr noundef %0) #2 {
  %2 = alloca ptr, align 8
  store ptr %0, ptr %2, align 8, !tbaa !53
  %3 = load ptr, ptr %2, align 8, !tbaa !53
  %4 = getelementptr inbounds nuw %struct._object, ptr %3, i32 0, i32 1
  %5 = load ptr, ptr %4, align 8, !tbaa !190
  ret ptr %5
}

; Function Attrs: nounwind uwtable
define internal i32 @check_valid_tool(i32 noundef %0) #0 {
  %2 = alloca i32, align 4
  %3 = alloca i32, align 4
  store i32 %0, ptr %3, align 4, !tbaa !9
  %4 = load i32, ptr %3, align 4, !tbaa !9
  %5 = icmp slt i32 %4, 0
  br i1 %5, label %9, label %6

6:                                                ; preds = %1
  %7 = load i32, ptr %3, align 4, !tbaa !9
  %8 = icmp sge i32 %7, 6
  br i1 %8, label %9, label %13

9:                                                ; preds = %6, %1
  %10 = load ptr, ptr @PyExc_ValueError, align 8, !tbaa !53
  %11 = load i32, ptr %3, align 4, !tbaa !9
  %12 = call ptr (ptr, ptr, ...) @PyErr_Format(ptr noundef %10, ptr noundef @.str.27, i32 noundef %11)
  store i32 -1, ptr %2, align 4
  br label %14

13:                                               ; preds = %6
  store i32 0, ptr %2, align 4
  br label %14

14:                                               ; preds = %13, %9
  %15 = load i32, ptr %2, align 4
  ret i32 %15
}

; Function Attrs: inlinehint nounwind uwtable
define internal i32 @Py_IS_TYPE(ptr noundef %0, ptr noundef %1) #2 {
  %3 = alloca ptr, align 8
  %4 = alloca ptr, align 8
  store ptr %0, ptr %3, align 8, !tbaa !53
  store ptr %1, ptr %4, align 8, !tbaa !196
  %5 = load ptr, ptr %3, align 8, !tbaa !53
  %6 = call ptr @_Py_TYPE(ptr noundef %5)
  %7 = load ptr, ptr %4, align 8, !tbaa !196
  %8 = icmp eq ptr %6, %7
  %9 = zext i1 %8 to i32
  ret i32 %9
}

; Function Attrs: nounwind uwtable
define internal i32 @monitoring_get_local_events_impl(ptr noundef %0, i32 noundef %1, ptr noundef %2) #0 {
  %4 = alloca i32, align 4
  %5 = alloca ptr, align 8
  %6 = alloca i32, align 4
  %7 = alloca ptr, align 8
  %8 = alloca i32, align 4
  %9 = alloca ptr, align 8
  %10 = alloca i32, align 4
  store ptr %0, ptr %5, align 8, !tbaa !53
  store i32 %1, ptr %6, align 4, !tbaa !9
  store ptr %2, ptr %7, align 8, !tbaa !53
  %11 = load ptr, ptr %7, align 8, !tbaa !53
  %12 = call i32 @Py_IS_TYPE(ptr noundef %11, ptr noundef @PyCode_Type)
  %13 = icmp ne i32 %12, 0
  br i1 %13, label %17, label %14

14:                                               ; preds = %3
  %15 = load ptr, ptr @PyExc_TypeError, align 8, !tbaa !53
  %16 = call ptr (ptr, ptr, ...) @PyErr_Format(ptr noundef %15, ptr noundef @.str.34)
  store i32 -1, ptr %4, align 4
  br label %58

17:                                               ; preds = %3
  %18 = load i32, ptr %6, align 4, !tbaa !9
  %19 = call i32 @check_valid_tool(i32 noundef %18)
  %20 = icmp ne i32 %19, 0
  br i1 %20, label %21, label %22

21:                                               ; preds = %17
  store i32 -1, ptr %4, align 4
  br label %58

22:                                               ; preds = %17
  call void @llvm.lifetime.start.p0(i64 4, ptr %8) #8
  store i32 0, ptr %8, align 4, !tbaa !9
  call void @llvm.lifetime.start.p0(i64 8, ptr %9) #8
  %23 = load ptr, ptr %7, align 8, !tbaa !53
  %24 = getelementptr inbounds nuw %struct.PyCodeObject, ptr %23, i32 0, i32 26
  %25 = load ptr, ptr %24, align 8, !tbaa !31
  store ptr %25, ptr %9, align 8, !tbaa !12
  %26 = load ptr, ptr %9, align 8, !tbaa !12
  %27 = icmp ne ptr %26, null
  br i1 %27, label %28, label %56

28:                                               ; preds = %22
  call void @llvm.lifetime.start.p0(i64 4, ptr %10) #8
  store i32 0, ptr %10, align 4, !tbaa !9
  br label %29

29:                                               ; preds = %52, %28
  %30 = load i32, ptr %10, align 4, !tbaa !9
  %31 = icmp slt i32 %30, 11
  br i1 %31, label %33, label %32

32:                                               ; preds = %29
  call void @llvm.lifetime.end.p0(i64 4, ptr %10) #8
  br label %55

33:                                               ; preds = %29
  %34 = load ptr, ptr %9, align 8, !tbaa !12
  %35 = getelementptr inbounds nuw %struct._PyCoMonitoringData, ptr %34, i32 0, i32 0
  %36 = getelementptr inbounds nuw %struct._Py_LocalMonitors, ptr %35, i32 0, i32 0
  %37 = load i32, ptr %10, align 4, !tbaa !9
  %38 = sext i32 %37 to i64
  %39 = getelementptr [11 x i8], ptr %36, i64 0, i64 %38
  %40 = load i8, ptr %39, align 1, !tbaa !11
  %41 = zext i8 %40 to i32
  %42 = load i32, ptr %6, align 4, !tbaa !9
  %43 = ashr i32 %41, %42
  %44 = and i32 %43, 1
  %45 = icmp ne i32 %44, 0
  br i1 %45, label %46, label %51

46:                                               ; preds = %33
  %47 = load i32, ptr %10, align 4, !tbaa !9
  %48 = shl i32 1, %47
  %49 = load i32, ptr %8, align 4, !tbaa !9
  %50 = or i32 %49, %48
  store i32 %50, ptr %8, align 4, !tbaa !9
  br label %51

51:                                               ; preds = %46, %33
  br label %52

52:                                               ; preds = %51
  %53 = load i32, ptr %10, align 4, !tbaa !9
  %54 = add i32 %53, 1
  store i32 %54, ptr %10, align 4, !tbaa !9
  br label %29, !llvm.loop !226

55:                                               ; preds = %32
  br label %56

56:                                               ; preds = %55, %22
  %57 = load i32, ptr %8, align 4, !tbaa !9
  store i32 %57, ptr %4, align 4
  call void @llvm.lifetime.end.p0(i64 8, ptr %9) #8
  call void @llvm.lifetime.end.p0(i64 4, ptr %8) #8
  br label %58

58:                                               ; preds = %56, %21, %14
  %59 = load i32, ptr %4, align 4
  ret i32 %59
}

; Function Attrs: nounwind uwtable
define internal ptr @monitoring_get_local_events(ptr noundef %0, ptr noundef %1, i64 noundef %2) #0 {
  %4 = alloca ptr, align 8
  %5 = alloca ptr, align 8
  %6 = alloca i64, align 8
  %7 = alloca ptr, align 8
  %8 = alloca i32, align 4
  %9 = alloca ptr, align 8
  %10 = alloca i32, align 4
  store ptr %0, ptr %4, align 8, !tbaa !53
  store ptr %1, ptr %5, align 8, !tbaa !44
  store i64 %2, ptr %6, align 8, !tbaa !43
  call void @llvm.lifetime.start.p0(i64 8, ptr %7) #8
  store ptr null, ptr %7, align 8, !tbaa !53
  call void @llvm.lifetime.start.p0(i64 4, ptr %8) #8
  call void @llvm.lifetime.start.p0(i64 8, ptr %9) #8
  call void @llvm.lifetime.start.p0(i64 4, ptr %10) #8
  %11 = load i64, ptr %6, align 8, !tbaa !43
  %12 = icmp sle i64 2, %11
  br i1 %12, label %13, label %16

13:                                               ; preds = %3
  %14 = load i64, ptr %6, align 8, !tbaa !43
  %15 = icmp sle i64 %14, 2
  br i1 %15, label %21, label %16

16:                                               ; preds = %13, %3
  %17 = load i64, ptr %6, align 8, !tbaa !43
  %18 = call i32 @_PyArg_CheckPositional(ptr noundef @.str.20, i64 noundef %17, i64 noundef 2, i64 noundef 2)
  %19 = icmp ne i32 %18, 0
  br i1 %19, label %21, label %20

20:                                               ; preds = %16
  br label %50

21:                                               ; preds = %16, %13
  %22 = load ptr, ptr %5, align 8, !tbaa !44
  %23 = getelementptr ptr, ptr %22, i64 0
  %24 = load ptr, ptr %23, align 8, !tbaa !53
  %25 = call i32 @PyLong_AsInt(ptr noundef %24)
  store i32 %25, ptr %8, align 4, !tbaa !9
  %26 = load i32, ptr %8, align 4, !tbaa !9
  %27 = icmp eq i32 %26, -1
  br i1 %27, label %28, label %32

28:                                               ; preds = %21
  %29 = call ptr @PyErr_Occurred()
  %30 = icmp ne ptr %29, null
  br i1 %30, label %31, label %32

31:                                               ; preds = %28
  br label %50

32:                                               ; preds = %28, %21
  %33 = load ptr, ptr %5, align 8, !tbaa !44
  %34 = getelementptr ptr, ptr %33, i64 1
  %35 = load ptr, ptr %34, align 8, !tbaa !53
  store ptr %35, ptr %9, align 8, !tbaa !53
  %36 = load ptr, ptr %4, align 8, !tbaa !53
  %37 = load i32, ptr %8, align 4, !tbaa !9
  %38 = load ptr, ptr %9, align 8, !tbaa !53
  %39 = call i32 @monitoring_get_local_events_impl(ptr noundef %36, i32 noundef %37, ptr noundef %38)
  store i32 %39, ptr %10, align 4, !tbaa !9
  %40 = load i32, ptr %10, align 4, !tbaa !9
  %41 = icmp eq i32 %40, -1
  br i1 %41, label %42, label %46

42:                                               ; preds = %32
  %43 = call ptr @PyErr_Occurred()
  %44 = icmp ne ptr %43, null
  br i1 %44, label %45, label %46

45:                                               ; preds = %42
  br label %50

46:                                               ; preds = %42, %32
  %47 = load i32, ptr %10, align 4, !tbaa !9
  %48 = sext i32 %47 to i64
  %49 = call ptr @PyLong_FromLong(i64 noundef %48)
  store ptr %49, ptr %7, align 8, !tbaa !53
  br label %50

50:                                               ; preds = %46, %45, %31, %20
  %51 = load ptr, ptr %7, align 8, !tbaa !53
  call void @llvm.lifetime.end.p0(i64 4, ptr %10) #8
  call void @llvm.lifetime.end.p0(i64 8, ptr %9) #8
  call void @llvm.lifetime.end.p0(i64 4, ptr %8) #8
  call void @llvm.lifetime.end.p0(i64 8, ptr %7) #8
  ret ptr %51
}