; Function Attrs: nounwind uwtable
define internal ptr @monitoring_get_local_events(ptr readnone captures(none) %0, ptr noundef readonly captures(none) %1, i64 noundef %2) #2 {
  %or.cond = icmp eq i64 %2, 2
  br i1 %or.cond, label %6, label %4

4:                                                ; preds = %3
  %5 = tail call i32 @_PyArg_CheckPositional(ptr noundef nonnull @.str.20, i64 noundef %2, i64 noundef 2, i64 noundef 2) #11
  %.not = icmp eq i32 %5, 0
  br i1 %.not, label %46, label %6

6:                                                ; preds = %3, %4
  %7 = load ptr, ptr %1, align 8, !tbaa !46
  %8 = tail call i32 @PyLong_AsInt(ptr noundef %7) #11
  %9 = icmp eq i32 %8, -1
  br i1 %9, label %31, label %.split

.split:                                           ; preds = %6
  %10 = getelementptr i8, ptr %1, i64 8
  %11 = load ptr, ptr %10, align 8, !tbaa !46
  %12 = getelementptr i8, ptr %11, i64 8
  %.val.i = load ptr, ptr %12, align 8, !tbaa !66
  %.not.i = icmp eq ptr %.val.i, @PyCode_Type
  br i1 %.not.i, label %16, label %13

13:                                               ; preds = %.split
  %14 = load ptr, ptr @PyExc_TypeError, align 8, !tbaa !46
  %15 = tail call ptr (ptr, ptr, ...) @PyErr_Format(ptr noundef %14, ptr noundef nonnull @.str.34) #11
  br label %monitoring_get_local_events_impl.exit.thread

16:                                               ; preds = %.split
  %or.cond.i.i = icmp ugt i32 %8, 5
  br i1 %or.cond.i.i, label %check_valid_tool.exit.i, label %19

check_valid_tool.exit.i:                          ; preds = %16
  %17 = load ptr, ptr @PyExc_ValueError, align 8, !tbaa !46
  %18 = tail call ptr (ptr, ptr, ...) @PyErr_Format(ptr noundef %17, ptr noundef nonnull @.str.27, i32 noundef %8) #11
  br label %monitoring_get_local_events_impl.exit.thread

19:                                               ; preds = %16
  %20 = getelementptr inbounds nuw i8, ptr %11, i64 176
  %21 = load ptr, ptr %20, align 8, !tbaa !26
  %.not16.i = icmp eq ptr %21, null
  br i1 %.not16.i, label %monitoring_get_local_events_impl.exit.thread24, label %.preheader.i

.preheader.i:                                     ; preds = %19
  %22 = shl nuw nsw i32 1, %8
  br label %23

23:                                               ; preds = %23, %.preheader.i
  %indvars.iv.i = phi i64 [ 0, %.preheader.i ], [ %indvars.iv.next.i, %23 ]
  %.13.i = phi i32 [ 0, %.preheader.i ], [ %.2.i, %23 ]
  %24 = getelementptr [11 x i8], ptr %21, i64 0, i64 %indvars.iv.i
  %25 = load i8, ptr %24, align 1, !tbaa !33
  %26 = zext i8 %25 to i32
  %27 = and i32 %22, %26
  %.not17.i = icmp eq i32 %27, 0
  %28 = trunc nuw nsw i64 %indvars.iv.i to i32
  %29 = shl nuw nsw i32 1, %28
  %30 = select i1 %.not17.i, i32 0, i32 %29
  %.2.i = or i32 %30, %.13.i
  %indvars.iv.next.i = add nuw nsw i64 %indvars.iv.i, 1
  %exitcond.not.i = icmp eq i64 %indvars.iv.next.i, 11
  br i1 %exitcond.not.i, label %monitoring_get_local_events_impl.exit, label %23, !llvm.loop !194

31:                                               ; preds = %6
  %32 = tail call ptr @PyErr_Occurred() #11
  %.not14 = icmp eq ptr %32, null
  br i1 %.not14, label %.split12, label %46

.split12:                                         ; preds = %31
  %33 = getelementptr i8, ptr %1, i64 8
  %34 = load ptr, ptr %33, align 8, !tbaa !46
  %35 = getelementptr i8, ptr %34, i64 8
  %.val.i16 = load ptr, ptr %35, align 8, !tbaa !66
  %.not.i17 = icmp eq ptr %.val.i16, @PyCode_Type
  br i1 %.not.i17, label %39, label %36

36:                                               ; preds = %.split12
  %37 = load ptr, ptr @PyExc_TypeError, align 8, !tbaa !46
  %38 = tail call ptr (ptr, ptr, ...) @PyErr_Format(ptr noundef %37, ptr noundef nonnull @.str.34) #11
  br label %monitoring_get_local_events_impl.exit.thread

39:                                               ; preds = %.split12
  %40 = load ptr, ptr @PyExc_ValueError, align 8, !tbaa !46
  %41 = tail call ptr (ptr, ptr, ...) @PyErr_Format(ptr noundef %40, ptr noundef nonnull @.str.27, i32 noundef -1) #11
  br label %monitoring_get_local_events_impl.exit.thread

monitoring_get_local_events_impl.exit:            ; preds = %23
  %42 = icmp eq i32 %.2.i, -1
  br i1 %42, label %monitoring_get_local_events_impl.exit.thread, label %monitoring_get_local_events_impl.exit.thread24

monitoring_get_local_events_impl.exit.thread:     ; preds = %39, %36, %check_valid_tool.exit.i, %13, %monitoring_get_local_events_impl.exit
  %43 = tail call ptr @PyErr_Occurred() #11
  %.not15 = icmp eq ptr %43, null
  br i1 %.not15, label %monitoring_get_local_events_impl.exit.thread24, label %46

monitoring_get_local_events_impl.exit.thread24:   ; preds = %19, %monitoring_get_local_events_impl.exit.thread, %monitoring_get_local_events_impl.exit
  %phi.call22 = phi i32 [ -1, %monitoring_get_local_events_impl.exit.thread ], [ %.2.i, %monitoring_get_local_events_impl.exit ], [ 0, %19 ]
  %44 = sext i32 %phi.call22 to i64
  %45 = tail call ptr @PyLong_FromLong(i64 noundef %44) #11
  br label %46

46:                                               ; preds = %monitoring_get_local_events_impl.exit.thread, %31, %4, %monitoring_get_local_events_impl.exit.thread24
  %.0 = phi ptr [ null, %31 ], [ null, %monitoring_get_local_events_impl.exit.thread ], [ %45, %monitoring_get_local_events_impl.exit.thread24 ], [ null, %4 ]
  ret ptr %.0
}